; Function Attrs: mustprogress uwtable
define zeroext range(i8 0, 2) i8 @Java_sun_jvm_hotspot_debugger_linux_amd64_DwarfParser_isBPOffsetAvailable(ptr noundef %0, ptr noundef %1) local_unnamed_addr #0 {
  %3 = load ptr, ptr @_ZL18p_dwarf_context_ID, align 8
  %4 = load ptr, ptr %0, align 8
  %5 = getelementptr inbounds i8, ptr %4, i64 808
  %6 = load ptr, ptr %5, align 8
  %7 = tail call noundef i64 %6(ptr noundef nonnull %0, ptr noundef %1, ptr noundef %3)
  %8 = inttoptr i64 %7 to ptr
  %9 = getelementptr inbounds i8, ptr %8, i64 60
  %10 = load i8, ptr %9, align 4
  %11 = and i8 %10, 1
  ret i8 %11
}